target datalayout = "e-m:e-p270:32:32-p271:32:32-p272:64:64-i64:64-i128:128-f80:128-n8:16:32:64-S128"
target triple = "x86_64-pc-linux-gnu"

; Function Attrs: mustprogress nounwind uwtable
define internal noundef double @_ZN5osgeo4proj9operationL16lcc_1sp_to_2sp_fEdddd(double noundef %0, double noundef %1, double noundef %2, double noundef %3) #2 {
  %5 = alloca double, align 8
  %6 = alloca double, align 8
  %7 = alloca double, align 8
  %8 = alloca double, align 8
  %9 = alloca double, align 8
  %10 = alloca double, align 8
  store double %0, ptr %5, align 8, !tbaa !46
  store double %1, ptr %6, align 8, !tbaa !46
  store double %2, ptr %7, align 8, !tbaa !46
  store double %3, ptr %8, align 8, !tbaa !46
  call void @llvm.lifetime.start.p0(i64 8, ptr %9) #24
  %11 = load double, ptr %5, align 8, !tbaa !46
  store double %11, ptr %9, align 8, !tbaa !46
  call void @llvm.lifetime.start.p0(i64 8, ptr %10) #24
  %12 = load double, ptr %7, align 8, !tbaa !46
  %13 = load double, ptr %9, align 8, !tbaa !46
  %14 = fmul double %12, %13
  store double %14, ptr %10, align 8, !tbaa !46
  %15 = load double, ptr %9, align 8, !tbaa !46
  %16 = load double, ptr %9, align 8, !tbaa !46
  %17 = fneg double %15
  %18 = call double @llvm.fmuladd.f64(double %17, double %16, double 1.000000e+00)
  %19 = load double, ptr %10, align 8, !tbaa !46
  %20 = load double, ptr %10, align 8, !tbaa !46
  %21 = fneg double %19
  %22 = call double @llvm.fmuladd.f64(double %21, double %20, double 1.000000e+00)
  %23 = fdiv double %18, %22
  %24 = load double, ptr %6, align 8, !tbaa !46
  %25 = load double, ptr %6, align 8, !tbaa !46
  %26 = fmul double %24, %25
  %27 = load double, ptr %9, align 8, !tbaa !46
  %28 = fsub double 1.000000e+00, %27
  %29 = load double, ptr %9, align 8, !tbaa !46
  %30 = fadd double 1.000000e+00, %29
  %31 = fdiv double %28, %30
  %32 = load double, ptr %10, align 8, !tbaa !46
  %33 = fadd double 1.000000e+00, %32
  %34 = load double, ptr %10, align 8, !tbaa !46
  %35 = fsub double 1.000000e+00, %34
  %36 = fdiv double %33, %35
  %37 = load double, ptr %7, align 8, !tbaa !46
  %38 = call double @pow(double noundef %36, double noundef %37) #24, !tbaa !87
  %39 = fmul double %31, %38
  %40 = load double, ptr %8, align 8, !tbaa !46
  %41 = call double @pow(double noundef %39, double noundef %40) #24, !tbaa !87
  %42 = fneg double %26
  %43 = call double @llvm.fmuladd.f64(double %42, double %41, double %23)
  call void @llvm.lifetime.end.p0(i64 8, ptr %10) #24
  call void @llvm.lifetime.end.p0(i64 8, ptr %9) #24
  ret double %43
}

; Function Attrs: mustprogress uwtable
define internal noundef double @_ZN5osgeo4proj9operationL26find_zero_lcc_1sp_to_2sp_fEdbdd(double noundef %0, i1 noundef zeroext %1, double noundef %2, double noundef %3) #0 {
  %5 = alloca double, align 8
  %6 = alloca double, align 8
  %7 = alloca i8, align 1
  %8 = alloca double, align 8
  %9 = alloca double, align 8
  %10 = alloca double, align 8
  %11 = alloca double, align 8
  %12 = alloca double, align 8
  %13 = alloca i32, align 4
  %14 = alloca i32, align 4
  %15 = alloca double, align 8
  %16 = alloca double, align 8
  store double %0, ptr %6, align 8, !tbaa !46
  %17 = zext i1 %1 to i8
  store i8 %17, ptr %7, align 1, !tbaa !32
  store double %2, ptr %8, align 8, !tbaa !46
  store double %3, ptr %9, align 8, !tbaa !46
  call void @llvm.lifetime.start.p0(i64 8, ptr %10) #24
  call void @llvm.lifetime.start.p0(i64 8, ptr %11) #24
  call void @llvm.lifetime.start.p0(i64 8, ptr %12) #24
  %18 = load i8, ptr %7, align 1, !tbaa !32, !range !44, !noundef !45
  %19 = trunc i8 %18 to i1
  br i1 %19, label %20, label %22

20:                                               ; preds = %4
  %21 = load double, ptr %6, align 8, !tbaa !46
  store double %21, ptr %10, align 8, !tbaa !46
  store double 1.000000e+00, ptr %11, align 8, !tbaa !46
  store double 1.000000e+00, ptr %12, align 8, !tbaa !46
  br label %24

22:                                               ; preds = %4
  store double -1.000000e+00, ptr %10, align 8, !tbaa !46
  %23 = load double, ptr %6, align 8, !tbaa !46
  store double %23, ptr %11, align 8, !tbaa !46
  store double -1.000000e+00, ptr %12, align 8, !tbaa !46
  br label %24

24:                                               ; preds = %22, %20
  call void @llvm.lifetime.start.p0(i64 4, ptr %13) #24
  store i32 0, ptr %13, align 4, !tbaa !87
  br label %25

25:                                               ; preds = %69, %24
  %26 = load i32, ptr %13, align 4, !tbaa !87
  %27 = icmp slt i32 %26, 100
  br i1 %27, label %29, label %28

28:                                               ; preds = %25
  store i32 2, ptr %14, align 4
  br label %72

29:                                               ; preds = %25
  call void @llvm.lifetime.start.p0(i64 8, ptr %15) #24
  %30 = load double, ptr %10, align 8, !tbaa !46
  %31 = load double, ptr %11, align 8, !tbaa !46
  %32 = fadd double %30, %31
  %33 = fdiv double %32, 2.000000e+00
  store double %33, ptr %15, align 8, !tbaa !46
  call void @llvm.lifetime.start.p0(i64 8, ptr %16) #24
  %34 = load double, ptr %15, align 8, !tbaa !46
  %35 = load double, ptr %8, align 8, !tbaa !46
  %36 = load double, ptr %9, align 8, !tbaa !46
  %37 = load double, ptr %6, align 8, !tbaa !46
  %38 = call noundef double @_ZN5osgeo4proj9operationL16lcc_1sp_to_2sp_fEdddd(double noundef %34, double noundef %35, double noundef %36, double noundef %37)
  store double %38, ptr %16, align 8, !tbaa !46
  %39 = load double, ptr %16, align 8, !tbaa !46
  %40 = fcmp oeq double %39, 0.000000e+00
  br i1 %40, label %46, label %41

41:                                               ; preds = %29
  %42 = load double, ptr %11, align 8, !tbaa !46
  %43 = load double, ptr %10, align 8, !tbaa !46
  %44 = fsub double %42, %43
  %45 = fcmp olt double %44, 1.000000e-18
  br i1 %45, label %46, label %48

46:                                               ; preds = %41, %29
  %47 = load double, ptr %15, align 8, !tbaa !46
  store double %47, ptr %5, align 8
  store i32 1, ptr %14, align 4
  br label %66

48:                                               ; preds = %41
  %49 = load double, ptr %16, align 8, !tbaa !46
  %50 = fcmp ogt double %49, 0.000000e+00
  br i1 %50, label %51, label %54

51:                                               ; preds = %48
  %52 = load double, ptr %12, align 8, !tbaa !46
  %53 = fcmp ogt double %52, 0.000000e+00
  br i1 %53, label %60, label %54

54:                                               ; preds = %51, %48
  %55 = load double, ptr %16, align 8, !tbaa !46
  %56 = fcmp olt double %55, 0.000000e+00
  br i1 %56, label %57, label %63

57:                                               ; preds = %54
  %58 = load double, ptr %12, align 8, !tbaa !46
  %59 = fcmp olt double %58, 0.000000e+00
  br i1 %59, label %60, label %63

60:                                               ; preds = %57, %51
  %61 = load double, ptr %15, align 8, !tbaa !46
  store double %61, ptr %10, align 8, !tbaa !46
  %62 = load double, ptr %16, align 8, !tbaa !46
  store double %62, ptr %12, align 8, !tbaa !46
  br label %65

63:                                               ; preds = %57, %54
  %64 = load double, ptr %15, align 8, !tbaa !46
  store double %64, ptr %11, align 8, !tbaa !46
  br label %65

65:                                               ; preds = %63, %60
  store i32 0, ptr %14, align 4
  br label %66

66:                                               ; preds = %65, %46
  call void @llvm.lifetime.end.p0(i64 8, ptr %16) #24
  call void @llvm.lifetime.end.p0(i64 8, ptr %15) #24
  %67 = load i32, ptr %14, align 4
  switch i32 %67, label %72 [
    i32 0, label %68
  ]

68:                                               ; preds = %66
  br label %69

69:                                               ; preds = %68
  %70 = load i32, ptr %13, align 4, !tbaa !87
  %71 = add nsw i32 %70, 1
  store i32 %71, ptr %13, align 4, !tbaa !87
  br label %25, !llvm.loop !151

72:                                               ; preds = %66, %28
  call void @llvm.lifetime.end.p0(i64 4, ptr %13) #24
  %73 = load i32, ptr %14, align 4
  switch i32 %73, label %79 [
    i32 2, label %74
  ]

74:                                               ; preds = %72
  %75 = load double, ptr %10, align 8, !tbaa !46
  %76 = load double, ptr %11, align 8, !tbaa !46
  %77 = fadd double %75, %76
  %78 = fdiv double %77, 2.000000e+00
  store double %78, ptr %5, align 8
  store i32 1, ptr %14, align 4
  br label %79

79:                                               ; preds = %74, %72
  call void @llvm.lifetime.end.p0(i64 8, ptr %12) #24
  call void @llvm.lifetime.end.p0(i64 8, ptr %11) #24
  call void @llvm.lifetime.end.p0(i64 8, ptr %10) #24
  %80 = load double, ptr %5, align 8
  ret double %80
}