; Function Attrs: mustprogress nofree nounwind memory(write) uwtable
define internal fastcc noundef double @_ZN5osgeo4proj9operationL26find_zero_lcc_1sp_to_2sp_fEdbdd(double noundef %0, i1 noundef zeroext %1, double noundef %2, double noundef %3) unnamed_addr #17 {
  %. = select i1 %1, double 1.000000e+00, double %0
  %.47 = select i1 %1, double 1.000000e+00, double -1.000000e+00
  %.48 = select i1 %1, double %0, double -1.000000e+00
  %5 = fneg double %2
  %6 = fmul double %2, %5
  br label %7

7:                                                ; preds = %4, %36
  %.13163 = phi double [ %.48, %4 ], [ %.333.ph, %36 ]
  %.03662 = phi i32 [ 0, %4 ], [ %37, %36 ]
  %.13861 = phi double [ %.47, %4 ], [ %.239.ph, %36 ]
  %.14260 = phi double [ %., %4 ], [ %.344.ph, %36 ]
  %8 = fadd double %.14260, %.13163
  %9 = fmul double %8, 5.000000e-01
  %10 = fmul double %3, %9
  %11 = fneg double %9
  %12 = tail call double @llvm.fmuladd.f64(double %11, double %9, double 1.000000e+00)
  %13 = fneg double %10
  %14 = tail call double @llvm.fmuladd.f64(double %13, double %10, double 1.000000e+00)
  %15 = fdiv double %12, %14
  %16 = fsub double 1.000000e+00, %9
  %17 = fadd double %9, 1.000000e+00
  %18 = fdiv double %16, %17
  %19 = fadd double %10, 1.000000e+00
  %20 = fsub double 1.000000e+00, %10
  %21 = fdiv double %19, %20
  %22 = tail call double @pow(double noundef %21, double noundef %3) #32, !tbaa !22
  %23 = fmul double %18, %22
  %24 = tail call double @pow(double noundef %23, double noundef %0) #32, !tbaa !22
  %25 = tail call noundef double @llvm.fmuladd.f64(double %6, double %24, double %15)
  %26 = fcmp une double %25, 0.000000e+00
  %27 = fsub double %.14260, %.13163
  %28 = fcmp uge double %27, 1.000000e-18
  %or.cond50.not = and i1 %26, %28
  br i1 %or.cond50.not, label %29, label %split

29:                                               ; preds = %7
  %30 = fcmp ogt double %25, 0.000000e+00
  %31 = fcmp ogt double %.13861, 0.000000e+00
  %or.cond = select i1 %30, i1 %31, i1 false
  br i1 %or.cond, label %36, label %32

32:                                               ; preds = %29
  %33 = fcmp olt double %25, 0.000000e+00
  %34 = fcmp olt double %.13861, 0.000000e+00
  %or.cond4 = select i1 %33, i1 %34, i1 false
  br i1 %or.cond4, label %36, label %35

35:                                               ; preds = %32
  br label %36

36:                                               ; preds = %29, %32, %35
  %.344.ph = phi double [ %.14260, %29 ], [ %.14260, %32 ], [ %9, %35 ]
  %.239.ph = phi double [ %25, %29 ], [ %25, %32 ], [ %.13861, %35 ]
  %.333.ph = phi double [ %9, %29 ], [ %9, %32 ], [ %.13163, %35 ]
  %37 = add nuw nsw i32 %.03662, 1
  %exitcond = icmp eq i32 %37, 100
  br i1 %exitcond, label %._crit_edge, label %7, !llvm.loop !373

._crit_edge:                                      ; preds = %36
  %.pre = fadd double %.344.ph, %.333.ph
  %.pre65 = fmul double %.pre, 5.000000e-01
  br label %split

split:                                            ; preds = %7, %._crit_edge
  %.3 = phi double [ %.pre65, %._crit_edge ], [ %9, %7 ]
  ret double %.3
}